target datalayout = "e-m:e-p270:32:32-p271:32:32-p272:64:64-i64:64-i128:128-f80:128-n8:16:32:64-S128"
target triple = "x86_64-pc-linux-gnu"

@_ZL24kCustomExtensionContents = internal constant [17 x i8] c"custom extension\00", align 16

; Function Attrs: mustprogress nounwind uwtable
define internal void @_ZL27CustomExtensionFreeCallbackP6ssl_stjPKhPv(ptr noundef %0, i32 noundef %1, ptr noundef %2, ptr noundef %3) #4 {
  %5 = alloca ptr, align 8
  %6 = alloca i32, align 4
  %7 = alloca ptr, align 8
  %8 = alloca ptr, align 8
  store ptr %0, ptr %5, align 8, !tbaa !204
  store i32 %1, ptr %6, align 4, !tbaa !6
  store ptr %2, ptr %7, align 8, !tbaa !13
  store ptr %3, ptr %8, align 8, !tbaa !25
  %9 = load i32, ptr %6, align 4, !tbaa !6
  %10 = icmp ne i32 %9, 1234
  br i1 %10, label %17, label %11

11:                                               ; preds = %4
  %12 = load ptr, ptr %8, align 8, !tbaa !25
  %13 = icmp ne ptr %12, inttoptr (i64 1234 to ptr)
  br i1 %13, label %17, label %14

14:                                               ; preds = %11
  %15 = load ptr, ptr %7, align 8, !tbaa !13
  %16 = icmp ne ptr %15, @_ZL24kCustomExtensionContents
  br i1 %16, label %17, label %18

17:                                               ; preds = %14, %11, %4
  call void @abort() #21
  unreachable

18:                                               ; preds = %14
  ret void
}