; Function Attrs: mustprogress nofree nounwind uwtable
define internal void @_ZL27CustomExtensionFreeCallbackP6ssl_stjPKhPv(ptr readnone captures(none) %0, i32 noundef %1, ptr noundef readnone captures(address) %2, ptr noundef readnone captures(address) %3) #11 {
  %5 = icmp ne i32 %1, 1234
  %6 = icmp ne ptr %3, inttoptr (i64 1234 to ptr)
  %or.cond = or i1 %5, %6
  %7 = icmp ne ptr %2, @_ZL24kCustomExtensionContents
  %or.cond3 = or i1 %7, %or.cond
  br i1 %or.cond3, label %8, label %9

8:                                                ; preds = %4
  tail call void @abort() #30
  unreachable

9:                                                ; preds = %4
  ret void
}